target datalayout = "e-m:e-p270:32:32-p271:32:32-p272:64:64-i64:64-i128:128-f80:128-n8:16:32:64-S128"
target triple = "x86_64-pc-linux-gnu"

; Function Attrs: nounwind uwtable
define i32 @stbiw__zhash(ptr noundef %0) #0 {
  %2 = alloca ptr, align 8
  %3 = alloca i32, align 4
  store ptr %0, ptr %2, align 8, !tbaa !12
  call void @llvm.lifetime.start.p0(i64 4, ptr %3) #11
  %4 = load ptr, ptr %2, align 8, !tbaa !12
  %5 = getelementptr inbounds i8, ptr %4, i64 0
  %6 = load i8, ptr %5, align 1, !tbaa !18
  %7 = zext i8 %6 to i32
  %8 = load ptr, ptr %2, align 8, !tbaa !12
  %9 = getelementptr inbounds i8, ptr %8, i64 1
  %10 = load i8, ptr %9, align 1, !tbaa !18
  %11 = zext i8 %10 to i32
  %12 = shl i32 %11, 8
  %13 = add nsw i32 %7, %12
  %14 = load ptr, ptr %2, align 8, !tbaa !12
  %15 = getelementptr inbounds i8, ptr %14, i64 2
  %16 = load i8, ptr %15, align 1, !tbaa !18
  %17 = zext i8 %16 to i32
  %18 = shl i32 %17, 16
  %19 = add nsw i32 %13, %18
  store i32 %19, ptr %3, align 4, !tbaa !3
  %20 = load i32, ptr %3, align 4, !tbaa !3
  %21 = shl i32 %20, 3
  %22 = load i32, ptr %3, align 4, !tbaa !3
  %23 = xor i32 %22, %21
  store i32 %23, ptr %3, align 4, !tbaa !3
  %24 = load i32, ptr %3, align 4, !tbaa !3
  %25 = lshr i32 %24, 5
  %26 = load i32, ptr %3, align 4, !tbaa !3
  %27 = add i32 %26, %25
  store i32 %27, ptr %3, align 4, !tbaa !3
  %28 = load i32, ptr %3, align 4, !tbaa !3
  %29 = shl i32 %28, 4
  %30 = load i32, ptr %3, align 4, !tbaa !3
  %31 = xor i32 %30, %29
  store i32 %31, ptr %3, align 4, !tbaa !3
  %32 = load i32, ptr %3, align 4, !tbaa !3
  %33 = lshr i32 %32, 17
  %34 = load i32, ptr %3, align 4, !tbaa !3
  %35 = add i32 %34, %33
  store i32 %35, ptr %3, align 4, !tbaa !3
  %36 = load i32, ptr %3, align 4, !tbaa !3
  %37 = shl i32 %36, 25
  %38 = load i32, ptr %3, align 4, !tbaa !3
  %39 = xor i32 %38, %37
  store i32 %39, ptr %3, align 4, !tbaa !3
  %40 = load i32, ptr %3, align 4, !tbaa !3
  %41 = lshr i32 %40, 6
  %42 = load i32, ptr %3, align 4, !tbaa !3
  %43 = add i32 %42, %41
  store i32 %43, ptr %3, align 4, !tbaa !3
  %44 = load i32, ptr %3, align 4, !tbaa !3
  call void @llvm.lifetime.end.p0(i64 4, ptr %3) #11
  ret i32 %44
}