; Function Attrs: mustprogress nofree norecurse nosync nounwind willreturn memory(argmem: read) uwtable
define i32 @stbiw__zhash(ptr noundef readonly captures(none) %0) local_unnamed_addr #17 {
  %2 = load i16, ptr %0, align 1
  %3 = zext i16 %2 to i32
  %4 = getelementptr inbounds nuw i8, ptr %0, i64 2
  %5 = load i8, ptr %4, align 1, !tbaa !11
  %6 = zext i8 %5 to i32
  %7 = shl nuw nsw i32 %6, 16
  %8 = or disjoint i32 %7, %3
  %9 = shl nuw nsw i32 %8, 3
  %10 = xor i32 %9, %8
  %11 = lshr i32 %10, 5
  %12 = add nuw nsw i32 %11, %10
  %13 = shl nuw i32 %12, 4
  %14 = xor i32 %13, %12
  %15 = lshr i32 %14, 17
  %16 = add i32 %15, %14
  %17 = shl i32 %16, 25
  %18 = xor i32 %17, %16
  %19 = lshr i32 %18, 6
  %20 = add i32 %19, %18
  ret i32 %20
}